target datalayout = "e-m:e-p270:32:32-p271:32:32-p272:64:64-i64:64-i128:128-f80:128-n8:16:32:64-S128"
target triple = "x86_64-pc-linux-gnu"

%class.MetaspaceSummary = type { i64, %class.MetaspaceCombinedStats, %class.MetaspaceChunkFreeListSummary, %class.MetaspaceChunkFreeListSummary }
%class.MetaspaceCombinedStats = type { %class.MetaspaceStats, %class.MetaspaceStats, %class.MetaspaceStats }
%class.MetaspaceStats = type { i64, i64, i64 }
%class.MetaspaceChunkFreeListSummary = type { i64, i64, i64, i64, i64, i64, i64, i64 }

@UseCompressedClassPointers = external global i8, align 1

; Function Attrs: mustprogress nounwind uwtable
define linkonce_odr hidden noundef nonnull align 8 dereferenceable(64) ptr @_ZNK16MetaspaceSummary29class_chunk_free_list_summaryEv(ptr noundef nonnull align 8 dereferenceable(208) %0) #1 comdat align 2 {
  %2 = alloca ptr, align 8
  store ptr %0, ptr %2, align 8
  %3 = load ptr, ptr %2, align 8
  %4 = getelementptr inbounds %class.MetaspaceSummary, ptr %3, i32 0, i32 3
  ret ptr %4
}

; Function Attrs: mustprogress nounwind uwtable
define linkonce_odr hidden noundef nonnull align 8 dereferenceable(64) ptr @_ZNK16MetaspaceSummary33metaspace_chunk_free_list_summaryEv(ptr noundef nonnull align 8 dereferenceable(208) %0) #1 comdat align 2 {
  %2 = alloca ptr, align 8
  store ptr %0, ptr %2, align 8
  %3 = load ptr, ptr %2, align 8
  %4 = getelementptr inbounds %class.MetaspaceSummary, ptr %3, i32 0, i32 2
  ret ptr %4
}

; Function Attrs: mustprogress nounwind uwtable
define hidden void @_ZNK8GCTracer24report_metaspace_summaryEN6GCWhen4TypeERK16MetaspaceSummary(ptr noundef nonnull align 8 dereferenceable(80) %0, i32 noundef %1, ptr noundef nonnull align 8 dereferenceable(208) %2) #1 align 2 {
  %4 = alloca ptr, align 8
  %5 = alloca i32, align 4
  %6 = alloca ptr, align 8
  store ptr %0, ptr %4, align 8
  store i32 %1, ptr %5, align 4
  store ptr %2, ptr %6, align 8
  %7 = load ptr, ptr %4, align 8
  %8 = load i32, ptr %5, align 4
  %9 = load ptr, ptr %6, align 8
  call void @_ZNK8GCTracer29send_meta_space_summary_eventEN6GCWhen4TypeERK16MetaspaceSummary(ptr noundef nonnull align 8 dereferenceable(80) %7, i32 noundef %8, ptr noundef nonnull align 8 dereferenceable(208) %9)
  %10 = load i32, ptr %5, align 4
  %11 = load ptr, ptr %6, align 8
  %12 = call noundef nonnull align 8 dereferenceable(64) ptr @_ZNK16MetaspaceSummary33metaspace_chunk_free_list_summaryEv(ptr noundef nonnull align 8 dereferenceable(208) %11)
  call void @_ZNK8GCTracer38send_metaspace_chunk_free_list_summaryEN6GCWhen4TypeEN9Metaspace12MetadataTypeERK29MetaspaceChunkFreeListSummary(ptr noundef nonnull align 8 dereferenceable(80) %7, i32 noundef %10, i32 noundef 1, ptr noundef nonnull align 8 dereferenceable(64) %12)
  %13 = load i8, ptr @UseCompressedClassPointers, align 1
  %14 = trunc i8 %13 to i1
  br i1 %14, label %15, label %19

15:                                               ; preds = %3
  %16 = load i32, ptr %5, align 4
  %17 = load ptr, ptr %6, align 8
  %18 = call noundef nonnull align 8 dereferenceable(64) ptr @_ZNK16MetaspaceSummary29class_chunk_free_list_summaryEv(ptr noundef nonnull align 8 dereferenceable(208) %17)
  call void @_ZNK8GCTracer38send_metaspace_chunk_free_list_summaryEN6GCWhen4TypeEN9Metaspace12MetadataTypeERK29MetaspaceChunkFreeListSummary(ptr noundef nonnull align 8 dereferenceable(80) %7, i32 noundef %16, i32 noundef 0, ptr noundef nonnull align 8 dereferenceable(64) %18)
  br label %19

19:                                               ; preds = %15, %3
  ret void
}