; Function Attrs: mustprogress nounwind uwtable
define hidden void @_ZNK8GCTracer24report_metaspace_summaryEN6GCWhen4TypeERK16MetaspaceSummary(ptr noundef nonnull align 8 dereferenceable(80) %0, i32 noundef %1, ptr noundef nonnull align 8 dereferenceable(208) %2) local_unnamed_addr #0 align 2 {
  tail call void @_ZNK8GCTracer29send_meta_space_summary_eventEN6GCWhen4TypeERK16MetaspaceSummary(ptr noundef nonnull align 8 dereferenceable(80) %0, i32 noundef %1, ptr noundef nonnull align 8 dereferenceable(208) %2) #7
  %4 = getelementptr inbounds i8, ptr %2, i64 80
  tail call void @_ZNK8GCTracer38send_metaspace_chunk_free_list_summaryEN6GCWhen4TypeEN9Metaspace12MetadataTypeERK29MetaspaceChunkFreeListSummary(ptr noundef nonnull align 8 dereferenceable(80) %0, i32 noundef %1, i32 noundef 1, ptr noundef nonnull align 8 dereferenceable(64) %4) #7
  %5 = load i8, ptr @UseCompressedClassPointers, align 1
  %6 = trunc i8 %5 to i1
  br i1 %6, label %7, label %9

7:                                                ; preds = %3
  %8 = getelementptr inbounds i8, ptr %2, i64 144
  tail call void @_ZNK8GCTracer38send_metaspace_chunk_free_list_summaryEN6GCWhen4TypeEN9Metaspace12MetadataTypeERK29MetaspaceChunkFreeListSummary(ptr noundef nonnull align 8 dereferenceable(80) %0, i32 noundef %1, i32 noundef 0, ptr noundef nonnull align 8 dereferenceable(64) %8) #7
  br label %9

9:                                                ; preds = %7, %3
  ret void
}